; Function Attrs: mustprogress uwtable
define dso_local noundef zeroext i1 @_ZN5ImGui8TreeNodeEPKc(ptr noundef %0) local_unnamed_addr #5 {
  %2 = load ptr, ptr @GImGui, align 8, !tbaa !4
  %3 = getelementptr inbounds nuw i8, ptr %2, i64 4928
  %4 = load ptr, ptr %3, align 8, !tbaa !9
  %5 = getelementptr inbounds nuw i8, ptr %4, i64 204
  store i8 1, ptr %5, align 4, !tbaa !130
  %6 = getelementptr inbounds nuw i8, ptr %4, i64 207
  %7 = load i8, ptr %6, align 1, !tbaa !151, !range !152, !noundef !153
  %8 = trunc nuw i8 %7 to i1
  br i1 %8, label %12, label %9

9:                                                ; preds = %1
  %10 = tail call noundef i32 @_ZN11ImGuiWindow5GetIDEPKcS1_(ptr noundef nonnull align 8 dereferenceable(1029) %4, ptr noundef %0, ptr noundef null)
  %11 = tail call noundef zeroext i1 @_ZN5ImGui16TreeNodeBehaviorEjiPKcS1_(i32 noundef %10, i32 noundef 0, ptr noundef %0, ptr noundef null)
  br label %12

12:                                               ; preds = %1, %9
  %.0 = phi i1 [ %11, %9 ], [ false, %1 ]
  ret i1 %.0
}